target datalayout = "e-m:e-p270:32:32-p271:32:32-p272:64:64-i64:64-i128:128-f80:128-n8:16:32:64-S128"
target triple = "x86_64-pc-linux-gnu"

%struct.ident_t = type { i32, i32, i32, i32, ptr }
%"struct.faiss::IndexIDMapTemplate" = type { %"struct.faiss::Index.base", ptr, i8, %"class.std::vector" }
%"struct.faiss::Index.base" = type <{ ptr, i32, [4 x i8], i64, i8, i8, [2 x i8], i32, float }>
%"class.std::vector" = type { %"struct.std::_Vector_base" }
%"struct.std::_Vector_base" = type { %"struct.std::_Vector_base<long, std::allocator<long>>::_Vector_impl" }
%"struct.std::_Vector_base<long, std::allocator<long>>::_Vector_impl" = type { %"struct.std::_Vector_base<long, std::allocator<long>>::_Vector_impl_data" }
%"struct.std::_Vector_base<long, std::allocator<long>>::_Vector_impl_data" = type { ptr, ptr, ptr }
%"struct.faiss::RangeSearchResult" = type { ptr, i64, ptr, ptr, ptr, i64 }

@1 = private unnamed_addr constant %struct.ident_t { i32 0, i32 514, i32 0, i32 22, ptr @0 }, align 8

; Function Attrs: mustprogress nounwind uwtable
define linkonce_odr noundef nonnull align 8 dereferenceable(8) ptr @_ZNKSt6vectorIlSaIlEEixEm(ptr noundef nonnull align 8 dereferenceable(24) %0, i64 noundef %1) #0 comdat align 2 {
  %3 = alloca ptr, align 8
  %4 = alloca i64, align 8
  store ptr %0, ptr %3, align 8, !tbaa !88
  store i64 %1, ptr %4, align 8, !tbaa !9
  %5 = load ptr, ptr %3, align 8
  %6 = getelementptr inbounds nuw %"struct.std::_Vector_base", ptr %5, i32 0, i32 0
  %7 = getelementptr inbounds nuw %"struct.std::_Vector_base<long, std::allocator<long>>::_Vector_impl_data", ptr %6, i32 0, i32 0
  %8 = load ptr, ptr %7, align 8, !tbaa !96
  %9 = load i64, ptr %4, align 8, !tbaa !9
  %10 = getelementptr inbounds nuw i64, ptr %8, i64 %9
  ret ptr %10
}

; Function Attrs: alwaysinline norecurse nounwind uwtable
define internal void @_ZNK5faiss18IndexIDMapTemplateINS_5IndexEE12range_searchElPKffPNS_17RangeSearchResultEPKNS_16SearchParametersE.omp_outlined(ptr noalias noundef %0, ptr noalias noundef %1, ptr noundef nonnull align 8 dereferenceable(8) %2, ptr noundef %3) #15 {
  %5 = alloca ptr, align 8
  %6 = alloca ptr, align 8
  %7 = alloca ptr, align 8
  %8 = alloca ptr, align 8
  %9 = alloca i64, align 8
  %10 = alloca i64, align 8
  %11 = alloca i64, align 8
  %12 = alloca i64, align 8
  %13 = alloca i64, align 8
  %14 = alloca i64, align 8
  %15 = alloca i64, align 8
  %16 = alloca i32, align 4
  %17 = alloca i64, align 8
  store ptr %0, ptr %5, align 8, !tbaa !68
  store ptr %1, ptr %6, align 8, !tbaa !68
  store ptr %2, ptr %7, align 8, !tbaa !141
  store ptr %3, ptr %8, align 8, !tbaa !4
  %18 = load ptr, ptr %7, align 8, !tbaa !141
  %19 = load ptr, ptr %8, align 8, !tbaa !4
  call void @llvm.lifetime.start.p0(i64 8, ptr %9) #16
  call void @llvm.lifetime.start.p0(i64 8, ptr %10) #16
  %20 = load ptr, ptr %18, align 8, !tbaa !47
  %21 = getelementptr inbounds nuw %"struct.faiss::RangeSearchResult", ptr %20, i32 0, i32 2
  %22 = load ptr, ptr %21, align 8, !tbaa !143
  %23 = load ptr, ptr %18, align 8, !tbaa !47
  %24 = getelementptr inbounds nuw %"struct.faiss::RangeSearchResult", ptr %23, i32 0, i32 1
  %25 = load i64, ptr %24, align 8, !tbaa !145
  %26 = getelementptr inbounds nuw i64, ptr %22, i64 %25
  %27 = load i64, ptr %26, align 8, !tbaa !9
  store i64 %27, ptr %10, align 8, !tbaa !9
  call void @llvm.lifetime.start.p0(i64 8, ptr %11) #16
  %28 = load i64, ptr %10, align 8, !tbaa !9
  %29 = sub i64 %28, 0
  %30 = udiv i64 %29, 1
  %31 = sub i64 %30, 1
  store i64 %31, ptr %11, align 8, !tbaa !9
  call void @llvm.lifetime.start.p0(i64 8, ptr %12) #16
  store i64 0, ptr %12, align 8, !tbaa !9
  call void @llvm.lifetime.end.p0(i64 8, ptr %12) #16
  %32 = load i64, ptr %10, align 8, !tbaa !9
  %33 = icmp ult i64 0, %32
  br i1 %33, label %34, label %97

34:                                               ; preds = %4
  call void @llvm.lifetime.start.p0(i64 8, ptr %13) #16
  store i64 0, ptr %13, align 8, !tbaa !9
  call void @llvm.lifetime.start.p0(i64 8, ptr %14) #16
  %35 = load i64, ptr %11, align 8, !tbaa !9
  store i64 %35, ptr %14, align 8, !tbaa !9
  call void @llvm.lifetime.start.p0(i64 8, ptr %15) #16
  store i64 1, ptr %15, align 8, !tbaa !9
  call void @llvm.lifetime.start.p0(i64 4, ptr %16) #16
  store i32 0, ptr %16, align 4, !tbaa !55
  call void @llvm.lifetime.start.p0(i64 8, ptr %17) #16
  %36 = load ptr, ptr %5, align 8
  %37 = load i32, ptr %36, align 4, !tbaa !55
  call void @__kmpc_for_static_init_8u(ptr @1, i32 %37, i32 34, ptr %16, ptr %13, ptr %14, ptr %15, i64 1, i64 1)
  %38 = load i64, ptr %14, align 8, !tbaa !9
  %39 = load i64, ptr %11, align 8, !tbaa !9
  %40 = icmp ugt i64 %38, %39
  br i1 %40, label %41, label %43

41:                                               ; preds = %34
  %42 = load i64, ptr %11, align 8, !tbaa !9
  br label %45

43:                                               ; preds = %34
  %44 = load i64, ptr %14, align 8, !tbaa !9
  br label %45

45:                                               ; preds = %43, %41
  %46 = phi i64 [ %42, %41 ], [ %44, %43 ]
  store i64 %46, ptr %14, align 8, !tbaa !9
  %47 = load i64, ptr %13, align 8, !tbaa !9
  store i64 %47, ptr %9, align 8, !tbaa !9
  br label %48

48:                                               ; preds = %90, %45
  %49 = load i64, ptr %9, align 8, !tbaa !9
  %50 = load i64, ptr %14, align 8, !tbaa !9
  %51 = add i64 %50, 1
  %52 = icmp ult i64 %49, %51
  br i1 %52, label %54, label %53

53:                                               ; preds = %48
  br label %93

54:                                               ; preds = %48
  %55 = load i64, ptr %9, align 8, !tbaa !9
  %56 = mul i64 %55, 1
  %57 = add i64 0, %56
  store i64 %57, ptr %17, align 8, !tbaa !9
  %58 = load ptr, ptr %18, align 8, !tbaa !47
  %59 = getelementptr inbounds nuw %"struct.faiss::RangeSearchResult", ptr %58, i32 0, i32 3
  %60 = load ptr, ptr %59, align 8, !tbaa !146
  %61 = load i64, ptr %17, align 8, !tbaa !9
  %62 = getelementptr inbounds i64, ptr %60, i64 %61
  %63 = load i64, ptr %62, align 8, !tbaa !9
  %64 = icmp slt i64 %63, 0
  br i1 %64, label %65, label %72

65:                                               ; preds = %54
  %66 = load ptr, ptr %18, align 8, !tbaa !47
  %67 = getelementptr inbounds nuw %"struct.faiss::RangeSearchResult", ptr %66, i32 0, i32 3
  %68 = load ptr, ptr %67, align 8, !tbaa !146
  %69 = load i64, ptr %17, align 8, !tbaa !9
  %70 = getelementptr inbounds i64, ptr %68, i64 %69
  %71 = load i64, ptr %70, align 8, !tbaa !9
  br label %82

72:                                               ; preds = %54
  %73 = getelementptr inbounds nuw %"struct.faiss::IndexIDMapTemplate", ptr %19, i32 0, i32 3
  %74 = load ptr, ptr %18, align 8, !tbaa !47
  %75 = getelementptr inbounds nuw %"struct.faiss::RangeSearchResult", ptr %74, i32 0, i32 3
  %76 = load ptr, ptr %75, align 8, !tbaa !146
  %77 = load i64, ptr %17, align 8, !tbaa !9
  %78 = getelementptr inbounds i64, ptr %76, i64 %77
  %79 = load i64, ptr %78, align 8, !tbaa !9
  %80 = call noundef nonnull align 8 dereferenceable(8) ptr @_ZNKSt6vectorIlSaIlEEixEm(ptr noundef nonnull align 8 dereferenceable(24) %73, i64 noundef %79) #16
  %81 = load i64, ptr %80, align 8, !tbaa !9
  br label %82

82:                                               ; preds = %72, %65
  %83 = phi i64 [ %71, %65 ], [ %81, %72 ]
  %84 = load ptr, ptr %18, align 8, !tbaa !47
  %85 = getelementptr inbounds nuw %"struct.faiss::RangeSearchResult", ptr %84, i32 0, i32 3
  %86 = load ptr, ptr %85, align 8, !tbaa !146
  %87 = load i64, ptr %17, align 8, !tbaa !9
  %88 = getelementptr inbounds i64, ptr %86, i64 %87
  store i64 %83, ptr %88, align 8, !tbaa !9
  br label %89

89:                                               ; preds = %82
  br label %90

90:                                               ; preds = %89
  %91 = load i64, ptr %9, align 8, !tbaa !9
  %92 = add i64 %91, 1
  store i64 %92, ptr %9, align 8, !tbaa !9
  br label %48

93:                                               ; preds = %53
  br label %94

94:                                               ; preds = %93
  %95 = load ptr, ptr %5, align 8
  %96 = load i32, ptr %95, align 4, !tbaa !55
  call void @__kmpc_for_static_fini(ptr @1, i32 %96)
  call void @llvm.lifetime.end.p0(i64 8, ptr %17) #16
  call void @llvm.lifetime.end.p0(i64 4, ptr %16) #16
  call void @llvm.lifetime.end.p0(i64 8, ptr %15) #16
  call void @llvm.lifetime.end.p0(i64 8, ptr %14) #16
  call void @llvm.lifetime.end.p0(i64 8, ptr %13) #16
  br label %97

97:                                               ; preds = %94, %4
  call void @llvm.lifetime.end.p0(i64 8, ptr %11) #16
  call void @llvm.lifetime.end.p0(i64 8, ptr %10) #16
  call void @llvm.lifetime.end.p0(i64 8, ptr %9) #16
  ret void
}