; Function Attrs: alwaysinline norecurse nounwind uwtable
define internal void @_ZNK5faiss18IndexIDMapTemplateINS_5IndexEE12range_searchElPKffPNS_17RangeSearchResultEPKNS_16SearchParametersE.omp_outlined(ptr noalias noundef readonly captures(none) %0, ptr noalias readnone captures(none) %1, ptr noundef nonnull readonly align 8 captures(none) dereferenceable(8) %2, ptr noundef readonly captures(none) %3) #15 {
  %5 = alloca i64, align 8
  %6 = alloca i64, align 8
  %7 = alloca i64, align 8
  %8 = alloca i32, align 4
  %9 = load ptr, ptr %2, align 8, !tbaa !49
  %10 = getelementptr inbounds nuw i8, ptr %9, i64 16
  %11 = load ptr, ptr %10, align 8, !tbaa !96
  %12 = getelementptr inbounds nuw i8, ptr %9, i64 8
  %13 = load i64, ptr %12, align 8, !tbaa !99
  %14 = getelementptr inbounds nuw i64, ptr %11, i64 %13
  %15 = load i64, ptr %14, align 8, !tbaa !29
  %.not = icmp eq i64 %15, 0
  br i1 %.not, label %40, label %16

16:                                               ; preds = %4
  %17 = add i64 %15, -1
  call void @llvm.lifetime.start.p0(i64 8, ptr nonnull %5) #16
  store i64 0, ptr %5, align 8, !tbaa !29
  call void @llvm.lifetime.start.p0(i64 8, ptr nonnull %6) #16
  store i64 %17, ptr %6, align 8, !tbaa !29
  call void @llvm.lifetime.start.p0(i64 8, ptr nonnull %7) #16
  store i64 1, ptr %7, align 8, !tbaa !29
  call void @llvm.lifetime.start.p0(i64 4, ptr nonnull %8) #16
  store i32 0, ptr %8, align 4, !tbaa !92
  %18 = load i32, ptr %0, align 4, !tbaa !92
  call void @__kmpc_for_static_init_8u(ptr nonnull @1, i32 %18, i32 34, ptr nonnull %8, ptr nonnull %5, ptr nonnull %6, ptr nonnull %7, i64 1, i64 1)
  %19 = load i64, ptr %6, align 8, !tbaa !29
  %20 = call i64 @llvm.umin.i64(i64 %19, i64 %17)
  store i64 %20, ptr %6, align 8, !tbaa !29
  %21 = load i64, ptr %5, align 8, !tbaa !29
  %.not17 = icmp ugt i64 %21, %20
  br i1 %.not17, label %._crit_edge, label %.lr.ph

.lr.ph:                                           ; preds = %16
  %22 = load ptr, ptr %2, align 8, !tbaa !49
  %23 = getelementptr inbounds nuw i8, ptr %22, i64 24
  %24 = load ptr, ptr %23, align 8, !tbaa !100
  %25 = getelementptr inbounds nuw i8, ptr %3, i64 56
  br label %26

26:                                               ; preds = %.lr.ph, %34
  %.016 = phi i64 [ %21, %.lr.ph ], [ %36, %34 ]
  %27 = getelementptr inbounds i64, ptr %24, i64 %.016
  %28 = load i64, ptr %27, align 8, !tbaa !29
  %29 = icmp slt i64 %28, 0
  br i1 %29, label %34, label %30

30:                                               ; preds = %26
  %31 = load ptr, ptr %25, align 8, !tbaa !37
  %32 = getelementptr inbounds nuw i64, ptr %31, i64 %28
  %33 = load i64, ptr %32, align 8, !tbaa !29
  br label %34

34:                                               ; preds = %26, %30
  %35 = phi i64 [ %33, %30 ], [ %28, %26 ]
  store i64 %35, ptr %27, align 8, !tbaa !29
  %36 = add nuw i64 %.016, 1
  %37 = load i64, ptr %6, align 8, !tbaa !29
  %38 = add i64 %37, 1
  %39 = icmp ult i64 %36, %38
  br i1 %39, label %26, label %._crit_edge

._crit_edge:                                      ; preds = %34, %16
  call void @__kmpc_for_static_fini(ptr nonnull @1, i32 %18)
  call void @llvm.lifetime.end.p0(i64 4, ptr nonnull %8) #16
  call void @llvm.lifetime.end.p0(i64 8, ptr nonnull %7) #16
  call void @llvm.lifetime.end.p0(i64 8, ptr nonnull %6) #16
  call void @llvm.lifetime.end.p0(i64 8, ptr nonnull %5) #16
  br label %40

40:                                               ; preds = %._crit_edge, %4
  ret void
}